; Function Attrs: mustprogress uwtable
define hidden noundef nonnull align 8 dereferenceable(8) ptr @_ZN4cvc58internal6theory5arithlsERSoRKNS2_6BoundsE(ptr noundef nonnull align 8 dereferenceable(8) %os, ptr nocapture noundef nonnull readonly align 8 dereferenceable(64) %b) local_unnamed_addr #3 personality ptr @__gxx_personality_v0 {
entry:
  %lower_strict = getelementptr inbounds i8, ptr %b, i64 8
  %0 = load i8, ptr %lower_strict, align 8
  %1 = and i8 %0, 1
  %tobool.not = icmp eq i8 %1, 0
  %cond = select i1 %tobool.not, i8 91, i8 40
  %call = tail call noundef nonnull align 8 dereferenceable(8) ptr @_ZStlsISt11char_traitsIcEERSt13basic_ostreamIcT_ES5_c(ptr noundef nonnull align 8 dereferenceable(8) %os, i8 noundef signext %cond)
  %2 = load ptr, ptr %b, align 8
  tail call void @_ZNK4cvc58internal4expr9NodeValue8toStreamERSo(ptr noundef nonnull align 8 dereferenceable(16) %2, ptr noundef nonnull align 8 dereferenceable(8) %call)
  %call3 = tail call noundef nonnull align 8 dereferenceable(8) ptr @_ZStlsISt11char_traitsIcEERSt13basic_ostreamIcT_ES5_PKc(ptr noundef nonnull align 8 dereferenceable(8) %call, ptr noundef nonnull @.str)
  %upper_value = getelementptr inbounds i8, ptr %b, i64 32
  %3 = load ptr, ptr %upper_value, align 8
  tail call void @_ZNK4cvc58internal4expr9NodeValue8toStreamERSo(ptr noundef nonnull align 8 dereferenceable(16) %3, ptr noundef nonnull align 8 dereferenceable(8) %call3)
  %upper_strict = getelementptr inbounds i8, ptr %b, i64 40
  %4 = load i8, ptr %upper_strict, align 8
  %5 = and i8 %4, 1
  %tobool9.not = icmp eq i8 %5, 0
  %cond10 = select i1 %tobool9.not, i8 93, i8 41
  %call12 = tail call noundef nonnull align 8 dereferenceable(8) ptr @_ZStlsISt11char_traitsIcEERSt13basic_ostreamIcT_ES5_c(ptr noundef nonnull align 8 dereferenceable(8) %call3, i8 noundef signext %cond10)
  ret ptr %call12
}